target datalayout = "e-m:e-p270:32:32-p271:32:32-p272:64:64-i64:64-i128:128-f80:128-n8:16:32:64-S128"
target triple = "x86_64-pc-linux-gnu"

%"class.pybind11::object" = type { %"class.pybind11::handle" }
%"class.pybind11::handle" = type { ptr }
%"class.pybind11::class_" = type { %"class.pybind11::detail::generic_type" }
%"class.pybind11::detail::generic_type" = type { %"class.pybind11::object" }
%"class.pybind11::class_.1" = type { %"class.pybind11::detail::generic_type" }
%"class.pybind11::enum_" = type { %"class.pybind11::class_.2", %"struct.pybind11::detail::enum_base" }
%"class.pybind11::class_.2" = type { %"class.pybind11::detail::generic_type" }
%"struct.pybind11::detail::enum_base" = type { %"class.pybind11::handle", %"class.pybind11::handle" }

@.str = private unnamed_addr constant [6 x i8] c"Voxel\00", align 1
@.str.3 = private unnamed_addr constant [47 x i8] c"Base Voxel class, containing grid id and color\00", align 1
@.str.4 = private unnamed_addr constant [10 x i8] c"VoxelGrid\00", align 1
@.str.5 = private unnamed_addr constant [63 x i8] c"VoxelGrid is a collection of voxels which are aligned in grid.\00", align 1
@.str.6 = private unnamed_addr constant [17 x i8] c"VoxelPoolingMode\00", align 1
@.str.7 = private unnamed_addr constant [42 x i8] c"Mode of determining color for each voxel.\00", align 1
@.str.8 = private unnamed_addr constant [4 x i8] c"AVG\00", align 1
@.str.9 = private unnamed_addr constant [4 x i8] c"MIN\00", align 1
@.str.10 = private unnamed_addr constant [4 x i8] c"MAX\00", align 1
@.str.11 = private unnamed_addr constant [4 x i8] c"SUM\00", align 1

; Function Attrs: mustprogress ssp uwtable
define hidden void @_ZN6open3d8geometry29pybind_voxelgrid_declarationsERN8pybind117module_E(ptr noundef nonnull align 8 dereferenceable(8) %0) #3 personality ptr @__gxx_personality_v0 {
  %2 = alloca ptr, align 8
  %3 = alloca %"class.pybind11::class_", align 8
  %4 = alloca %"class.pybind11::handle", align 8
  %5 = alloca %"class.pybind11::class_.1", align 8
  %6 = alloca %"class.pybind11::handle", align 8
  %7 = alloca ptr, align 8
  %8 = alloca i32, align 4
  %9 = alloca %"class.pybind11::enum_", align 8
  store ptr %0, ptr %2, align 8, !tbaa !145
  call void @llvm.lifetime.start.p0(i64 8, ptr %3) #25
  %10 = load ptr, ptr %2, align 8, !tbaa !145
  call void @llvm.memcpy.p0.p0.i64(ptr align 8 %4, ptr align 8 %10, i64 8, i1 false)
  %11 = getelementptr inbounds nuw %"class.pybind11::handle", ptr %4, i32 0, i32 0
  %12 = load ptr, ptr %11, align 8
  call void @_ZN8pybind116class_IN6open3d8geometry5VoxelEJSt10shared_ptrIS3_EEEC2IJA47_cEEENS_6handleEPKcDpRKT_(ptr noundef nonnull align 8 dereferenceable(8) %3, ptr %12, ptr noundef @.str, ptr noundef nonnull align 1 dereferenceable(47) @.str.3)
  call void @llvm.lifetime.start.p0(i64 8, ptr %5) #25
  %13 = load ptr, ptr %2, align 8, !tbaa !145
  call void @llvm.memcpy.p0.p0.i64(ptr align 8 %6, ptr align 8 %13, i64 8, i1 false)
  %14 = getelementptr inbounds nuw %"class.pybind11::handle", ptr %6, i32 0, i32 0
  %15 = load ptr, ptr %14, align 8
  invoke void @_ZN8pybind116class_IN6open3d8geometry9VoxelGridEJNS2_12PyGeometry3DIS3_EESt10shared_ptrIS3_ENS2_10Geometry3DEEEC2IJA63_cEEENS_6handleEPKcDpRKT_(ptr noundef nonnull align 8 dereferenceable(8) %5, ptr %15, ptr noundef @.str.4, ptr noundef nonnull align 1 dereferenceable(63) @.str.5)
          to label %16 unwind label %26

16:                                               ; preds = %1
  call void @llvm.lifetime.start.p0(i64 24, ptr %9) #25
  invoke void @_ZN8pybind115enum_IN6open3d8geometry9VoxelGrid16VoxelPoolingModeEEC2IJA42_cEEERKNS_6handleEPKcDpRKT_(ptr noundef nonnull align 8 dereferenceable(24) %9, ptr noundef nonnull align 8 dereferenceable(8) %5, ptr noundef @.str.6, ptr noundef nonnull align 1 dereferenceable(42) @.str.7)
          to label %17 unwind label %30

17:                                               ; preds = %16
  %18 = invoke noundef nonnull align 8 dereferenceable(24) ptr @_ZN8pybind115enum_IN6open3d8geometry9VoxelGrid16VoxelPoolingModeEE5valueEPKcS4_S7_(ptr noundef nonnull align 8 dereferenceable(24) %9, ptr noundef @.str.8, i32 noundef 0, ptr noundef null)
          to label %19 unwind label %34

19:                                               ; preds = %17
  %20 = invoke noundef nonnull align 8 dereferenceable(24) ptr @_ZN8pybind115enum_IN6open3d8geometry9VoxelGrid16VoxelPoolingModeEE5valueEPKcS4_S7_(ptr noundef nonnull align 8 dereferenceable(24) %18, ptr noundef @.str.9, i32 noundef 1, ptr noundef null)
          to label %21 unwind label %34

21:                                               ; preds = %19
  %22 = invoke noundef nonnull align 8 dereferenceable(24) ptr @_ZN8pybind115enum_IN6open3d8geometry9VoxelGrid16VoxelPoolingModeEE5valueEPKcS4_S7_(ptr noundef nonnull align 8 dereferenceable(24) %20, ptr noundef @.str.10, i32 noundef 2, ptr noundef null)
          to label %23 unwind label %34

23:                                               ; preds = %21
  %24 = invoke noundef nonnull align 8 dereferenceable(24) ptr @_ZN8pybind115enum_IN6open3d8geometry9VoxelGrid16VoxelPoolingModeEE5valueEPKcS4_S7_(ptr noundef nonnull align 8 dereferenceable(24) %22, ptr noundef @.str.11, i32 noundef 3, ptr noundef null)
          to label %25 unwind label %34

25:                                               ; preds = %23
  call void @_ZN8pybind116objectD2Ev(ptr noundef nonnull align 8 dereferenceable(24) %9) #25
  call void @llvm.lifetime.end.p0(i64 24, ptr %9) #25
  call void @_ZN8pybind116objectD2Ev(ptr noundef nonnull align 8 dereferenceable(8) %5) #25
  call void @llvm.lifetime.end.p0(i64 8, ptr %5) #25
  call void @_ZN8pybind116objectD2Ev(ptr noundef nonnull align 8 dereferenceable(8) %3) #25
  call void @llvm.lifetime.end.p0(i64 8, ptr %3) #25
  ret void

26:                                               ; preds = %1
  %27 = landingpad { ptr, i32 }
          cleanup
  %28 = extractvalue { ptr, i32 } %27, 0
  store ptr %28, ptr %7, align 8
  %29 = extractvalue { ptr, i32 } %27, 1
  store i32 %29, ptr %8, align 4
  br label %39

30:                                               ; preds = %16
  %31 = landingpad { ptr, i32 }
          cleanup
  %32 = extractvalue { ptr, i32 } %31, 0
  store ptr %32, ptr %7, align 8
  %33 = extractvalue { ptr, i32 } %31, 1
  store i32 %33, ptr %8, align 4
  br label %38

34:                                               ; preds = %23, %21, %19, %17
  %35 = landingpad { ptr, i32 }
          cleanup
  %36 = extractvalue { ptr, i32 } %35, 0
  store ptr %36, ptr %7, align 8
  %37 = extractvalue { ptr, i32 } %35, 1
  store i32 %37, ptr %8, align 4
  call void @_ZN8pybind116objectD2Ev(ptr noundef nonnull align 8 dereferenceable(24) %9) #25
  br label %38

38:                                               ; preds = %34, %30
  call void @llvm.lifetime.end.p0(i64 24, ptr %9) #25
  call void @_ZN8pybind116objectD2Ev(ptr noundef nonnull align 8 dereferenceable(8) %5) #25
  br label %39

39:                                               ; preds = %38, %26
  call void @llvm.lifetime.end.p0(i64 8, ptr %5) #25
  call void @_ZN8pybind116objectD2Ev(ptr noundef nonnull align 8 dereferenceable(8) %3) #25
  call void @llvm.lifetime.end.p0(i64 8, ptr %3) #25
  br label %40

40:                                               ; preds = %39
  %41 = load ptr, ptr %7, align 8
  %42 = load i32, ptr %8, align 4
  %43 = insertvalue { ptr, i32 } poison, ptr %41, 0
  %44 = insertvalue { ptr, i32 } %43, i32 %42, 1
  resume { ptr, i32 } %44
}