; Function Attrs: mustprogress ssp uwtable
define hidden void @_ZN6open3d8geometry29pybind_voxelgrid_declarationsERN8pybind117module_E(ptr noundef nonnull readonly align 8 captures(none) dereferenceable(8) %0) local_unnamed_addr #5 personality ptr @__gxx_personality_v0 {
  %2 = alloca %"class.pybind11::class_", align 8
  %3 = alloca %"class.pybind11::class_.1", align 8
  %4 = alloca %"class.pybind11::enum_", align 8
  call void @llvm.lifetime.start.p0(i64 8, ptr nonnull %2) #33
  %.sroa.01.0.copyload = load ptr, ptr %0, align 8
  call void @_ZN8pybind116class_IN6open3d8geometry5VoxelEJSt10shared_ptrIS3_EEEC2IJA47_cEEENS_6handleEPKcDpRKT_(ptr noundef nonnull align 8 dereferenceable(8) %2, ptr %.sroa.01.0.copyload, ptr noundef nonnull @.str, ptr noundef nonnull align 1 dereferenceable(47) @.str.3)
  call void @llvm.lifetime.start.p0(i64 8, ptr nonnull %3) #33
  %.sroa.0.0.copyload = load ptr, ptr %0, align 8
  invoke void @_ZN8pybind116class_IN6open3d8geometry9VoxelGridEJNS2_12PyGeometry3DIS3_EESt10shared_ptrIS3_ENS2_10Geometry3DEEEC2IJA63_cEEENS_6handleEPKcDpRKT_(ptr noundef nonnull align 8 dereferenceable(8) %3, ptr %.sroa.0.0.copyload, ptr noundef nonnull @.str.4, ptr noundef nonnull align 1 dereferenceable(63) @.str.5)
          to label %5 unwind label %48

5:                                                ; preds = %1
  call void @llvm.lifetime.start.p0(i64 24, ptr nonnull %4) #33
  invoke void @_ZN8pybind115enum_IN6open3d8geometry9VoxelGrid16VoxelPoolingModeEEC2IJA42_cEEERKNS_6handleEPKcDpRKT_(ptr noundef nonnull align 8 dereferenceable(24) %4, ptr noundef nonnull align 8 dereferenceable(8) %3, ptr noundef nonnull @.str.6, ptr noundef nonnull align 1 dereferenceable(42) @.str.7)
          to label %6 unwind label %50

6:                                                ; preds = %5
  %7 = invoke noundef nonnull align 8 dereferenceable(24) ptr @_ZN8pybind115enum_IN6open3d8geometry9VoxelGrid16VoxelPoolingModeEE5valueEPKcS4_S7_(ptr noundef nonnull align 8 dereferenceable(24) %4, ptr noundef nonnull @.str.8, i32 noundef 0, ptr noundef null)
          to label %8 unwind label %52

8:                                                ; preds = %6
  %9 = invoke noundef nonnull align 8 dereferenceable(24) ptr @_ZN8pybind115enum_IN6open3d8geometry9VoxelGrid16VoxelPoolingModeEE5valueEPKcS4_S7_(ptr noundef nonnull align 8 dereferenceable(24) %7, ptr noundef nonnull @.str.9, i32 noundef 1, ptr noundef null)
          to label %10 unwind label %52

10:                                               ; preds = %8
  %11 = invoke noundef nonnull align 8 dereferenceable(24) ptr @_ZN8pybind115enum_IN6open3d8geometry9VoxelGrid16VoxelPoolingModeEE5valueEPKcS4_S7_(ptr noundef nonnull align 8 dereferenceable(24) %9, ptr noundef nonnull @.str.10, i32 noundef 2, ptr noundef null)
          to label %12 unwind label %52

12:                                               ; preds = %10
  %13 = invoke noundef nonnull align 8 dereferenceable(24) ptr @_ZN8pybind115enum_IN6open3d8geometry9VoxelGrid16VoxelPoolingModeEE5valueEPKcS4_S7_(ptr noundef nonnull align 8 dereferenceable(24) %11, ptr noundef nonnull @.str.11, i32 noundef 3, ptr noundef null)
          to label %14 unwind label %52

14:                                               ; preds = %12
  %15 = load ptr, ptr %4, align 8, !tbaa !132
  %.not.i.i.i = icmp eq ptr %15, null
  br i1 %.not.i.i.i, label %_ZN8pybind116objectD2Ev.exit, label %16

16:                                               ; preds = %14
  %17 = load i64, ptr %15, align 8, !tbaa !131
  %18 = and i64 %17, 2147483648
  %.not2.i.i.i = icmp eq i64 %18, 0
  br i1 %.not2.i.i.i, label %19, label %_ZN8pybind116objectD2Ev.exit

19:                                               ; preds = %16
  %20 = add nsw i64 %17, -1
  store i64 %20, ptr %15, align 8, !tbaa !131
  %21 = icmp eq i64 %20, 0
  br i1 %21, label %22, label %_ZN8pybind116objectD2Ev.exit

22:                                               ; preds = %19
  invoke void @_Py_Dealloc(ptr noundef nonnull %15)
          to label %_ZN8pybind116objectD2Ev.exit unwind label %23

23:                                               ; preds = %22
  %24 = landingpad { ptr, i32 }
          catch ptr null
  %25 = extractvalue { ptr, i32 } %24, 0
  call void @__clang_call_terminate(ptr %25) #34
  unreachable

_ZN8pybind116objectD2Ev.exit:                     ; preds = %14, %16, %19, %22
  call void @llvm.lifetime.end.p0(i64 24, ptr nonnull %4) #33
  %26 = load ptr, ptr %3, align 8, !tbaa !132
  %.not.i.i.i8 = icmp eq ptr %26, null
  br i1 %.not.i.i.i8, label %_ZN8pybind116objectD2Ev.exit10, label %27

27:                                               ; preds = %_ZN8pybind116objectD2Ev.exit
  %28 = load i64, ptr %26, align 8, !tbaa !131
  %29 = and i64 %28, 2147483648
  %.not2.i.i.i9 = icmp eq i64 %29, 0
  br i1 %.not2.i.i.i9, label %30, label %_ZN8pybind116objectD2Ev.exit10

30:                                               ; preds = %27
  %31 = add nsw i64 %28, -1
  store i64 %31, ptr %26, align 8, !tbaa !131
  %32 = icmp eq i64 %31, 0
  br i1 %32, label %33, label %_ZN8pybind116objectD2Ev.exit10

33:                                               ; preds = %30
  invoke void @_Py_Dealloc(ptr noundef nonnull %26)
          to label %_ZN8pybind116objectD2Ev.exit10 unwind label %34

34:                                               ; preds = %33
  %35 = landingpad { ptr, i32 }
          catch ptr null
  %36 = extractvalue { ptr, i32 } %35, 0
  call void @__clang_call_terminate(ptr %36) #34
  unreachable

_ZN8pybind116objectD2Ev.exit10:                   ; preds = %_ZN8pybind116objectD2Ev.exit, %27, %30, %33
  call void @llvm.lifetime.end.p0(i64 8, ptr nonnull %3) #33
  %37 = load ptr, ptr %2, align 8, !tbaa !132
  %.not.i.i.i11 = icmp eq ptr %37, null
  br i1 %.not.i.i.i11, label %_ZN8pybind116objectD2Ev.exit13, label %38

38:                                               ; preds = %_ZN8pybind116objectD2Ev.exit10
  %39 = load i64, ptr %37, align 8, !tbaa !131
  %40 = and i64 %39, 2147483648
  %.not2.i.i.i12 = icmp eq i64 %40, 0
  br i1 %.not2.i.i.i12, label %41, label %_ZN8pybind116objectD2Ev.exit13

41:                                               ; preds = %38
  %42 = add nsw i64 %39, -1
  store i64 %42, ptr %37, align 8, !tbaa !131
  %43 = icmp eq i64 %42, 0
  br i1 %43, label %44, label %_ZN8pybind116objectD2Ev.exit13

44:                                               ; preds = %41
  invoke void @_Py_Dealloc(ptr noundef nonnull %37)
          to label %_ZN8pybind116objectD2Ev.exit13 unwind label %45

45:                                               ; preds = %44
  %46 = landingpad { ptr, i32 }
          catch ptr null
  %47 = extractvalue { ptr, i32 } %46, 0
  call void @__clang_call_terminate(ptr %47) #34
  unreachable

_ZN8pybind116objectD2Ev.exit13:                   ; preds = %_ZN8pybind116objectD2Ev.exit10, %38, %41, %44
  call void @llvm.lifetime.end.p0(i64 8, ptr nonnull %2) #33
  ret void

48:                                               ; preds = %1
  %49 = landingpad { ptr, i32 }
          cleanup
  br label %55

50:                                               ; preds = %5
  %51 = landingpad { ptr, i32 }
          cleanup
  br label %54

52:                                               ; preds = %12, %10, %8, %6
  %53 = landingpad { ptr, i32 }
          cleanup
  call void @_ZN8pybind116objectD2Ev(ptr noundef nonnull align 8 dereferenceable(24) %4) #33
  br label %54

54:                                               ; preds = %52, %50
  %.pn = phi { ptr, i32 } [ %53, %52 ], [ %51, %50 ]
  call void @llvm.lifetime.end.p0(i64 24, ptr nonnull %4) #33
  call void @_ZN8pybind116objectD2Ev(ptr noundef nonnull align 8 dereferenceable(8) %3) #33
  br label %55

55:                                               ; preds = %54, %48
  %.pn.pn = phi { ptr, i32 } [ %.pn, %54 ], [ %49, %48 ]
  call void @llvm.lifetime.end.p0(i64 8, ptr nonnull %3) #33
  call void @_ZN8pybind116objectD2Ev(ptr noundef nonnull align 8 dereferenceable(8) %2) #33
  call void @llvm.lifetime.end.p0(i64 8, ptr nonnull %2) #33
  resume { ptr, i32 } %.pn.pn
}